target datalayout = "e-m:e-p270:32:32-p271:32:32-p272:64:64-i64:64-i128:128-f80:128-n8:16:32:64-S128"
target triple = "x86_64-pc-linux-gnu"

%"class.icu_77::Locale" = type <{ %"class.icu_77::UObject", [12 x i8], [6 x i8], [4 x i8], [2 x i8], i32, [4 x i8], ptr, [157 x i8], [3 x i8], ptr, i8, [7 x i8] }>
%"class.icu_77::UObject" = type { ptr }

@_ZN6icu_7722LocaleDisplayNamesImplC1ERKNS_6LocaleEP15UDisplayContexti = unnamed_addr alias void (ptr, ptr, ptr, i32), ptr @_ZN6icu_7722LocaleDisplayNamesImplC2ERKNS_6LocaleEP15UDisplayContexti

; Function Attrs: mustprogress uwtable
define noundef ptr @_ZN6icu_7718LocaleDisplayNames14createInstanceERKNS_6LocaleEP15UDisplayContexti(ptr noundef nonnull align 8 dereferenceable(217) %0, ptr noundef %1, i32 noundef %2) #1 align 2 personality ptr @__gxx_personality_v0 {
  %4 = alloca ptr, align 8
  %5 = alloca ptr, align 8
  %6 = alloca i32, align 4
  %7 = alloca ptr, align 8
  %8 = alloca i1, align 1
  %9 = alloca ptr, align 8
  %10 = alloca i32, align 4
  store ptr %0, ptr %4, align 8, !tbaa !25
  store ptr %1, ptr %5, align 8, !tbaa !22
  store i32 %2, ptr %6, align 4, !tbaa !14
  %11 = load ptr, ptr %5, align 8, !tbaa !22
  %12 = icmp eq ptr %11, null
  br i1 %12, label %13, label %14

13:                                               ; preds = %3
  store i32 0, ptr %6, align 4, !tbaa !14
  br label %14

14:                                               ; preds = %13, %3
  %15 = call noundef ptr @_ZN6icu_777UMemorynwEm(i64 noundef 1208) #13
  %16 = icmp eq ptr %15, null
  store i1 false, ptr %8, align 1
  br i1 %16, label %22, label %17

17:                                               ; preds = %14
  store ptr %15, ptr %7, align 8
  store i1 true, ptr %8, align 1
  %18 = load ptr, ptr %4, align 8, !tbaa !25
  %19 = load ptr, ptr %5, align 8, !tbaa !22
  %20 = load i32, ptr %6, align 4, !tbaa !14
  invoke void @_ZN6icu_7722LocaleDisplayNamesImplC1ERKNS_6LocaleEP15UDisplayContexti(ptr noundef nonnull align 8 dereferenceable(1206) %15, ptr noundef nonnull align 8 dereferenceable(217) %18, ptr noundef %19, i32 noundef %20)
          to label %21 unwind label %24

21:                                               ; preds = %17
  br label %22

22:                                               ; preds = %21, %14
  %23 = phi ptr [ %15, %21 ], [ null, %14 ]
  ret ptr %23

24:                                               ; preds = %17
  %25 = landingpad { ptr, i32 }
          cleanup
  %26 = extractvalue { ptr, i32 } %25, 0
  store ptr %26, ptr %9, align 8
  %27 = extractvalue { ptr, i32 } %25, 1
  store i32 %27, ptr %10, align 4
  %28 = load i1, ptr %8, align 1
  br i1 %28, label %29, label %31

29:                                               ; preds = %24
  %30 = load ptr, ptr %7, align 8
  call void @_ZN6icu_777UMemorydlEPv(ptr noundef %30) #13
  br label %31

31:                                               ; preds = %29, %24
  br label %32

32:                                               ; preds = %31
  %33 = load ptr, ptr %9, align 8
  %34 = load i32, ptr %10, align 4
  %35 = insertvalue { ptr, i32 } poison, ptr %33, 0
  %36 = insertvalue { ptr, i32 } %35, i32 %34, 1
  resume { ptr, i32 } %36
}

; Function Attrs: inlinehint mustprogress nounwind uwtable
define internal noundef signext i8 @_ZL9U_FAILURE10UErrorCode(i32 noundef %0) #2 {
  %2 = alloca i32, align 4
  store i32 %0, ptr %2, align 4, !tbaa !15
  %3 = load i32, ptr %2, align 4, !tbaa !15
  %4 = icmp sgt i32 %3, 0
  %5 = zext i1 %4 to i8
  ret i8 %5
}

; Function Attrs: mustprogress uwtable
define ptr @uldn_openForContext_77(ptr noundef %0, ptr noundef %1, i32 noundef %2, ptr noundef %3) #1 personality ptr @__gxx_personality_v0 {
  %5 = alloca ptr, align 8
  %6 = alloca ptr, align 8
  %7 = alloca ptr, align 8
  %8 = alloca i32, align 4
  %9 = alloca ptr, align 8
  %10 = alloca %"class.icu_77::Locale", align 8
  %11 = alloca ptr, align 8
  %12 = alloca i32, align 4
  store ptr %0, ptr %6, align 8, !tbaa !17
  store ptr %1, ptr %7, align 8, !tbaa !22
  store i32 %2, ptr %8, align 4, !tbaa !14
  store ptr %3, ptr %9, align 8, !tbaa !22
  %13 = load ptr, ptr %9, align 8, !tbaa !22
  %14 = load i32, ptr %13, align 4, !tbaa !15
  %15 = call noundef signext i8 @_ZL9U_FAILURE10UErrorCode(i32 noundef %14)
  %16 = icmp ne i8 %15, 0
  br i1 %16, label %17, label %18

17:                                               ; preds = %4
  store ptr null, ptr %5, align 8
  br label %33

18:                                               ; preds = %4
  %19 = load ptr, ptr %6, align 8, !tbaa !17
  %20 = icmp eq ptr %19, null
  br i1 %20, label %21, label %23

21:                                               ; preds = %18
  %22 = call ptr @uloc_getDefault_77()
  store ptr %22, ptr %6, align 8, !tbaa !17
  br label %23

23:                                               ; preds = %21, %18
  call void @llvm.lifetime.start.p0(i64 224, ptr %10) #13
  %24 = load ptr, ptr %6, align 8, !tbaa !17
  call void @_ZN6icu_776LocaleC1EPKcS2_S2_S2_(ptr noundef nonnull align 8 dereferenceable(217) %10, ptr noundef %24, ptr noundef null, ptr noundef null, ptr noundef null)
  %25 = load ptr, ptr %7, align 8, !tbaa !22
  %26 = load i32, ptr %8, align 4, !tbaa !14
  %27 = invoke noundef ptr @_ZN6icu_7718LocaleDisplayNames14createInstanceERKNS_6LocaleEP15UDisplayContexti(ptr noundef nonnull align 8 dereferenceable(217) %10, ptr noundef %25, i32 noundef %26)
          to label %28 unwind label %29

28:                                               ; preds = %23
  store ptr %27, ptr %5, align 8
  call void @_ZN6icu_776LocaleD1Ev(ptr noundef nonnull align 8 dereferenceable(217) %10) #13
  call void @llvm.lifetime.end.p0(i64 224, ptr %10) #13
  br label %33

29:                                               ; preds = %23
  %30 = landingpad { ptr, i32 }
          cleanup
  %31 = extractvalue { ptr, i32 } %30, 0
  store ptr %31, ptr %11, align 8
  %32 = extractvalue { ptr, i32 } %30, 1
  store i32 %32, ptr %12, align 4
  call void @_ZN6icu_776LocaleD1Ev(ptr noundef nonnull align 8 dereferenceable(217) %10) #13
  call void @llvm.lifetime.end.p0(i64 224, ptr %10) #13
  br label %35

33:                                               ; preds = %28, %17
  %34 = load ptr, ptr %5, align 8
  ret ptr %34

35:                                               ; preds = %29
  %36 = load ptr, ptr %11, align 8
  %37 = load i32, ptr %12, align 4
  %38 = insertvalue { ptr, i32 } poison, ptr %36, 0
  %39 = insertvalue { ptr, i32 } %38, i32 %37, 1
  resume { ptr, i32 } %39
}