; Function Attrs: mustprogress uwtable
define noundef ptr @uldn_openForContext_77(ptr noundef %0, ptr noundef %1, i32 noundef %2, ptr noundef readonly captures(none) %3) local_unnamed_addr #1 personality ptr @__gxx_personality_v0 {
  %5 = alloca %"class.icu_77::Locale", align 8
  %6 = load i32, ptr %3, align 4, !tbaa !13
  %7 = icmp slt i32 %6, 1
  br i1 %7, label %8, label %18

8:                                                ; preds = %4
  %9 = icmp eq ptr %0, null
  br i1 %9, label %10, label %12

10:                                               ; preds = %8
  %11 = tail call ptr @uloc_getDefault_77()
  br label %12

12:                                               ; preds = %10, %8
  %.07 = phi ptr [ %11, %10 ], [ %0, %8 ]
  call void @llvm.lifetime.start.p0(i64 224, ptr nonnull %5) #19
  call void @_ZN6icu_776LocaleC1EPKcS2_S2_S2_(ptr noundef nonnull align 8 dereferenceable(217) %5, ptr noundef %.07, ptr noundef null, ptr noundef null, ptr noundef null)
  %13 = call noundef ptr @_ZN6icu_777UMemorynwEm(i64 noundef 1208) #19
  %14 = icmp eq ptr %13, null
  br i1 %14, label %_ZN6icu_7718LocaleDisplayNames14createInstanceERKNS_6LocaleEP15UDisplayContexti.exit, label %15

15:                                               ; preds = %12
  %16 = icmp eq ptr %1, null
  %spec.store.select.i = select i1 %16, i32 0, i32 %2
  invoke void @_ZN6icu_7722LocaleDisplayNamesImplC1ERKNS_6LocaleEP15UDisplayContexti(ptr noundef nonnull align 8 dereferenceable(1206) %13, ptr noundef nonnull align 8 dereferenceable(217) %5, ptr noundef %1, i32 noundef %spec.store.select.i)
          to label %_ZN6icu_7718LocaleDisplayNames14createInstanceERKNS_6LocaleEP15UDisplayContexti.exit unwind label %.body

.body:                                            ; preds = %15
  %17 = landingpad { ptr, i32 }
          cleanup
  call void @_ZN6icu_777UMemorydlEPv(ptr noundef nonnull %13) #19
  call void @_ZN6icu_776LocaleD1Ev(ptr noundef nonnull align 8 dereferenceable(217) %5) #19
  call void @llvm.lifetime.end.p0(i64 224, ptr nonnull %5) #19
  resume { ptr, i32 } %17

_ZN6icu_7718LocaleDisplayNames14createInstanceERKNS_6LocaleEP15UDisplayContexti.exit: ; preds = %15, %12
  call void @_ZN6icu_776LocaleD1Ev(ptr noundef nonnull align 8 dereferenceable(217) %5) #19
  call void @llvm.lifetime.end.p0(i64 224, ptr nonnull %5) #19
  br label %18

18:                                               ; preds = %4, %_ZN6icu_7718LocaleDisplayNames14createInstanceERKNS_6LocaleEP15UDisplayContexti.exit
  %.0 = phi ptr [ %13, %_ZN6icu_7718LocaleDisplayNames14createInstanceERKNS_6LocaleEP15UDisplayContexti.exit ], [ null, %4 ]
  ret ptr %.0
}